target datalayout = "e-m:e-p270:32:32-p271:32:32-p272:64:64-i64:64-i128:128-f80:128-n8:16:32:64-S128"
target triple = "x86_64-pc-linux-gnu"

%"struct.cv::ppf_match_3d::HSHTBL_i" = type { i64, ptr, ptr }
%"struct.cv::ppf_match_3d::hashnode_i" = type { i32, ptr, ptr }

; Function Attrs: mustprogress uwtable
define hidden noundef ptr @_ZN2cv12ppf_match_3d12hashtableGetEPNS0_8HSHTBL_iEj(ptr noundef %0, i32 noundef %1) #5 {
  %3 = alloca ptr, align 8
  %4 = alloca ptr, align 8
  %5 = alloca i32, align 4
  %6 = alloca ptr, align 8
  %7 = alloca i64, align 8
  %8 = alloca i32, align 4
  store ptr %0, ptr %4, align 8, !tbaa !11
  store i32 %1, ptr %5, align 4, !tbaa !3
  call void @llvm.lifetime.start.p0(i64 8, ptr %6) #3
  call void @llvm.lifetime.start.p0(i64 8, ptr %7) #3
  %9 = load ptr, ptr %4, align 8, !tbaa !11
  %10 = getelementptr inbounds nuw %"struct.cv::ppf_match_3d::HSHTBL_i", ptr %9, i32 0, i32 2
  %11 = load ptr, ptr %10, align 8, !tbaa !18
  %12 = load i32, ptr %5, align 4, !tbaa !3
  %13 = call noundef i64 %11(i32 noundef %12)
  %14 = load ptr, ptr %4, align 8, !tbaa !11
  %15 = getelementptr inbounds nuw %"struct.cv::ppf_match_3d::HSHTBL_i", ptr %14, i32 0, i32 0
  %16 = load i64, ptr %15, align 8, !tbaa !17
  %17 = urem i64 %13, %16
  store i64 %17, ptr %7, align 8, !tbaa !7
  %18 = load ptr, ptr %4, align 8, !tbaa !11
  %19 = getelementptr inbounds nuw %"struct.cv::ppf_match_3d::HSHTBL_i", ptr %18, i32 0, i32 1
  %20 = load ptr, ptr %19, align 8, !tbaa !13
  %21 = load i64, ptr %7, align 8, !tbaa !7
  %22 = getelementptr inbounds nuw ptr, ptr %20, i64 %21
  %23 = load ptr, ptr %22, align 8, !tbaa !19
  store ptr %23, ptr %6, align 8, !tbaa !19
  br label %24

24:                                               ; preds = %37, %2
  %25 = load ptr, ptr %6, align 8, !tbaa !19
  %26 = icmp ne ptr %25, null
  br i1 %26, label %27, label %41

27:                                               ; preds = %24
  %28 = load ptr, ptr %6, align 8, !tbaa !19
  %29 = getelementptr inbounds nuw %"struct.cv::ppf_match_3d::hashnode_i", ptr %28, i32 0, i32 0
  %30 = load i32, ptr %29, align 8, !tbaa !26
  %31 = load i32, ptr %5, align 4, !tbaa !3
  %32 = icmp eq i32 %30, %31
  br i1 %32, label %33, label %37

33:                                               ; preds = %27
  %34 = load ptr, ptr %6, align 8, !tbaa !19
  %35 = getelementptr inbounds nuw %"struct.cv::ppf_match_3d::hashnode_i", ptr %34, i32 0, i32 1
  %36 = load ptr, ptr %35, align 8, !tbaa !27
  store ptr %36, ptr %3, align 8
  store i32 1, ptr %8, align 4
  br label %42

37:                                               ; preds = %27
  %38 = load ptr, ptr %6, align 8, !tbaa !19
  %39 = getelementptr inbounds nuw %"struct.cv::ppf_match_3d::hashnode_i", ptr %38, i32 0, i32 2
  %40 = load ptr, ptr %39, align 8, !tbaa !21
  store ptr %40, ptr %6, align 8, !tbaa !19
  br label %24, !llvm.loop !31

41:                                               ; preds = %24
  store ptr null, ptr %3, align 8
  store i32 1, ptr %8, align 4
  br label %42

42:                                               ; preds = %41, %33
  call void @llvm.lifetime.end.p0(i64 8, ptr %7) #3
  call void @llvm.lifetime.end.p0(i64 8, ptr %6) #3
  %43 = load ptr, ptr %3, align 8
  ret ptr %43
}