; Function Attrs: mustprogress uwtable
define hidden noundef ptr @_ZN2cv12ppf_match_3d12hashtableGetEPNS0_8HSHTBL_iEj(ptr noundef readonly captures(none) %0, i32 noundef %1) local_unnamed_addr #10 {
  %3 = getelementptr inbounds nuw i8, ptr %0, i64 16
  %4 = load ptr, ptr %3, align 8, !tbaa !12
  %5 = tail call noundef i64 %4(i32 noundef %1)
  %6 = load i64, ptr %0, align 8, !tbaa !11
  %7 = urem i64 %5, %6
  %8 = getelementptr inbounds nuw i8, ptr %0, i64 8
  %9 = load ptr, ptr %8, align 8, !tbaa !3
  %10 = getelementptr inbounds nuw ptr, ptr %9, i64 %7
  %.01012 = load ptr, ptr %10, align 8, !tbaa !13
  %.not13 = icmp eq ptr %.01012, null
  br i1 %.not13, label %.loopexit, label %.lr.ph

.lr.ph:                                           ; preds = %2, %16
  %.01014 = phi ptr [ %.010, %16 ], [ %.01012, %2 ]
  %11 = load i32, ptr %.01014, align 8, !tbaa !21
  %12 = icmp eq i32 %11, %1
  br i1 %12, label %13, label %16

13:                                               ; preds = %.lr.ph
  %14 = getelementptr inbounds nuw i8, ptr %.01014, i64 8
  %15 = load ptr, ptr %14, align 8, !tbaa !22
  br label %.loopexit

16:                                               ; preds = %.lr.ph
  %17 = getelementptr inbounds nuw i8, ptr %.01014, i64 16
  %.010 = load ptr, ptr %17, align 8, !tbaa !13
  %.not = icmp eq ptr %.010, null
  br i1 %.not, label %.loopexit, label %.lr.ph, !llvm.loop !26

.loopexit:                                        ; preds = %16, %2, %13
  %.0 = phi ptr [ %15, %13 ], [ null, %2 ], [ null, %16 ]
  ret ptr %.0
}